; ModuleID = 'source-C-CXX/49/794.c'
source_filename = "source-C-CXX/49/794.c"
target datalayout = "e-m:e-p270:32:32-p271:32:32-p272:64:64-i64:64-f80:128-n8:16:32:64-S128"
target triple = "x86_64-pc-linux-gnu"

@.str = private unnamed_addr constant [3 x i8] c"%d\00", align 1
@str = private unnamed_addr constant [3 x i8] c"12\00", align 1
@str.13 = private unnamed_addr constant [3 x i8] c"11\00", align 1
@str.14 = private unnamed_addr constant [3 x i8] c"10\00", align 1
@str.15 = private unnamed_addr constant [2 x i8] c"9\00", align 1
@str.16 = private unnamed_addr constant [2 x i8] c"8\00", align 1
@str.17 = private unnamed_addr constant [2 x i8] c"7\00", align 1
@str.18 = private unnamed_addr constant [2 x i8] c"6\00", align 1
@str.19 = private unnamed_addr constant [2 x i8] c"5\00", align 1
@str.20 = private unnamed_addr constant [2 x i8] c"4\00", align 1
@str.21 = private unnamed_addr constant [2 x i8] c"3\00", align 1
@str.22 = private unnamed_addr constant [2 x i8] c"2\00", align 1
@str.23 = private unnamed_addr constant [2 x i8] c"1\00", align 1

; Function Attrs: nofree nounwind sspstrong uwtable
define dso_local i32 @main() local_unnamed_addr #0 {
  %1 = alloca i32, align 4
  %2 = bitcast i32* %1 to i8*
  call void @llvm.lifetime.start.p0i8(i64 4, i8* nonnull %2) #4
  %3 = call i32 (i8*, ...) @__isoc99_scanf(i8* getelementptr inbounds ([3 x i8], [3 x i8]* @.str, i64 0, i64 0), i32* nonnull %1)
  %4 = load i32, i32* %1, align 4, !tbaa !5
  %5 = sub nsw i32 8, %4
  %6 = icmp eq i32 %5, 1
  br i1 %6, label %7, label %9

7:                                                ; preds = %0
  %8 = call i32 @puts(i8* nonnull dereferenceable(1) getelementptr inbounds ([2 x i8], [2 x i8]* @str.23, i64 0, i64 0))
  br label %9

9:                                                ; preds = %7, %0
  %10 = icmp eq i32 %5, 4
  %11 = icmp eq i32 %4, -3
  %12 = or i1 %11, %10
  br i1 %12, label %13, label %16

13:                                               ; preds = %9
  %14 = call i32 @puts(i8* nonnull dereferenceable(1) getelementptr inbounds ([2 x i8], [2 x i8]* @str.22, i64 0, i64 0))
  %15 = call i32 @puts(i8* nonnull dereferenceable(1) getelementptr inbounds ([2 x i8], [2 x i8]* @str.21, i64 0, i64 0))
  br label %16

16:                                               ; preds = %9, %13
  %17 = icmp eq i32 %5, 0
  %18 = icmp eq i32 %4, 1
  %19 = or i1 %18, %17
  br i1 %19, label %20, label %22

20:                                               ; preds = %16
  %21 = call i32 @puts(i8* nonnull dereferenceable(1) getelementptr inbounds ([2 x i8], [2 x i8]* @str.20, i64 0, i64 0))
  br label %22

22:                                               ; preds = %16, %20
  %23 = icmp eq i32 %5, 2
  %24 = icmp eq i32 %4, -1
  %25 = or i1 %24, %23
  br i1 %25, label %26, label %28

26:                                               ; preds = %22
  %27 = call i32 @puts(i8* nonnull dereferenceable(1) getelementptr inbounds ([2 x i8], [2 x i8]* @str.19, i64 0, i64 0))
  br label %28

28:                                               ; preds = %22, %26
  %29 = icmp eq i32 %5, 5
  %30 = icmp eq i32 %4, -4
  %31 = or i1 %30, %29
  br i1 %31, label %32, label %34

32:                                               ; preds = %28
  %33 = call i32 @puts(i8* nonnull dereferenceable(1) getelementptr inbounds ([2 x i8], [2 x i8]* @str.18, i64 0, i64 0))
  br label %34

34:                                               ; preds = %28, %32
  br i1 %19, label %35, label %37

35:                                               ; preds = %34
  %36 = call i32 @puts(i8* nonnull dereferenceable(1) getelementptr inbounds ([2 x i8], [2 x i8]* @str.17, i64 0, i64 0))
  br label %37

37:                                               ; preds = %34, %35
  %38 = icmp eq i32 %5, 3
  %39 = icmp eq i32 %4, -2
  %40 = or i1 %39, %38
  br i1 %40, label %41, label %43

41:                                               ; preds = %37
  %42 = call i32 @puts(i8* nonnull dereferenceable(1) getelementptr inbounds ([2 x i8], [2 x i8]* @str.16, i64 0, i64 0))
  br label %43

43:                                               ; preds = %37, %41
  %44 = icmp eq i32 %5, 6
  %45 = icmp eq i32 %4, -5
  %46 = or i1 %45, %44
  br i1 %46, label %47, label %49

47:                                               ; preds = %43
  %48 = call i32 @puts(i8* nonnull dereferenceable(1) getelementptr inbounds ([2 x i8], [2 x i8]* @str.15, i64 0, i64 0))
  br label %49

49:                                               ; preds = %43, %47
  %50 = icmp eq i32 %4, 0
  %51 = or i1 %50, %6
  br i1 %51, label %52, label %54

52:                                               ; preds = %49
  %53 = call i32 @puts(i8* nonnull dereferenceable(1) getelementptr inbounds ([3 x i8], [3 x i8]* @str.14, i64 0, i64 0))
  br label %54

54:                                               ; preds = %49, %52
  br i1 %12, label %55, label %57

55:                                               ; preds = %54
  %56 = call i32 @puts(i8* nonnull dereferenceable(1) getelementptr inbounds ([3 x i8], [3 x i8]* @str.13, i64 0, i64 0))
  br label %57

57:                                               ; preds = %54, %55
  br i1 %46, label %58, label %60

58:                                               ; preds = %57
  %59 = call i32 @puts(i8* nonnull dereferenceable(1) getelementptr inbounds ([3 x i8], [3 x i8]* @str, i64 0, i64 0))
  br label %60

60:                                               ; preds = %57, %58
  call void @llvm.lifetime.end.p0i8(i64 4, i8* nonnull %2) #4
  ret i32 0
}

; Function Attrs: argmemonly mustprogress nofree nosync nounwind willreturn
declare void @llvm.lifetime.start.p0i8(i64 immarg, i8* nocapture) #1

; Function Attrs: nofree nounwind
declare noundef i32 @__isoc99_scanf(i8* nocapture noundef readonly, ...) local_unnamed_addr #2

; Function Attrs: argmemonly mustprogress nofree nosync nounwind willreturn
declare void @llvm.lifetime.end.p0i8(i64 immarg, i8* nocapture) #1

; Function Attrs: nofree nounwind
declare noundef i32 @puts(i8* nocapture noundef readonly) local_unnamed_addr #3


!llvm.module.flags = !{!0, !1, !2, !3}
!llvm.ident = !{!4}

!0 = !{i32 1, !"wchar_size", i32 4}
!1 = !{i32 7, !"PIC Level", i32 2}
!2 = !{i32 7, !"PIE Level", i32 2}
!3 = !{i32 7, !"uwtable", i32 1}
!4 = !{!"clang version 13.0.0"}
!5 = !{!6, !6, i64 0}
!6 = !{!"int", !7, i64 0}
!7 = !{!"omnipotent char", !8, i64 0}
!8 = !{!"Simple C/C++ TBAA"}
